target datalayout = "e-m:e-p270:32:32-p271:32:32-p272:64:64-i64:64-i128:128-f80:128-n8:16:32:64-S128"
target triple = "x86_64-pc-linux-gnu"

%struct.Vec_Wec_t_ = type { i32, i32, ptr }
%struct.Gia_Man_t_ = type { ptr, ptr, i32, i32, i32, i32, ptr, ptr, i32, i32, i32, ptr, ptr, %struct.Vec_Int_t_, %struct.Vec_Int_t_, i32, i32, i32, %struct.Vec_Int_t_, ptr, ptr, ptr, i32, i32, i32, i32, ptr, ptr, ptr, ptr, ptr, i32, i32, ptr, i32, ptr, ptr, ptr, ptr, ptr, ptr, ptr, ptr, ptr, ptr, ptr, ptr, ptr, ptr, ptr, ptr, ptr, ptr, %struct.Vec_Int_t_, %struct.Vec_Int_t_, ptr, ptr, ptr, ptr, ptr, ptr, ptr, ptr, ptr, ptr, ptr, ptr, ptr, ptr, ptr, ptr, ptr, ptr, ptr, ptr, ptr, i32, float, float, ptr, ptr, i32, ptr, ptr, ptr, ptr, ptr, ptr, ptr, ptr, ptr, ptr, ptr, ptr, ptr, ptr, ptr, i64, i64, ptr, ptr, i32, i32, i32, i32, i32, i32, i32, i32, i32, i32, i32, i32, ptr, ptr, ptr, ptr, ptr, ptr, ptr, ptr, i32, i32, i32, ptr, i32, i32, ptr, ptr, ptr, ptr, ptr, ptr, i32, i32, ptr, %struct.Vec_Int_t_, %struct.Vec_Int_t_, %struct.Vec_Int_t_, ptr, ptr, ptr, i32, i32, i32, i32, ptr, ptr, ptr, ptr, ptr }
%struct.Vec_Int_t_ = type { i32, i32, ptr }
%struct.Vec_Bit_t_ = type { i32, i32, ptr }

; Function Attrs: inlinehint nounwind uwtable
define internal ptr @Vec_WecEntry(ptr noundef %0, i32 noundef %1) #2 {
  %3 = alloca ptr, align 8
  %4 = alloca i32, align 4
  store ptr %0, ptr %3, align 8, !tbaa !8
  store i32 %1, ptr %4, align 4, !tbaa !10
  %5 = load ptr, ptr %3, align 8, !tbaa !8
  %6 = getelementptr inbounds nuw %struct.Vec_Wec_t_, ptr %5, i32 0, i32 2
  %7 = load ptr, ptr %6, align 8, !tbaa !46
  %8 = load i32, ptr %4, align 4, !tbaa !10
  %9 = sext i32 %8 to i64
  %10 = getelementptr inbounds %struct.Vec_Int_t_, ptr %7, i64 %9
  ret ptr %10
}

; Function Attrs: inlinehint nounwind uwtable
define internal void @Vec_IntShrink(ptr noundef %0, i32 noundef %1) #2 {
  %3 = alloca ptr, align 8
  %4 = alloca i32, align 4
  store ptr %0, ptr %3, align 8, !tbaa !37
  store i32 %1, ptr %4, align 4, !tbaa !10
  %5 = load i32, ptr %4, align 4, !tbaa !10
  %6 = load ptr, ptr %3, align 8, !tbaa !37
  %7 = getelementptr inbounds nuw %struct.Vec_Int_t_, ptr %6, i32 0, i32 1
  store i32 %5, ptr %7, align 4, !tbaa !40
  ret void
}

; Function Attrs: inlinehint nounwind uwtable
define internal void @Vec_IntWriteEntry(ptr noundef %0, i32 noundef %1, i32 noundef %2) #2 {
  %4 = alloca ptr, align 8
  %5 = alloca i32, align 4
  %6 = alloca i32, align 4
  store ptr %0, ptr %4, align 8, !tbaa !37
  store i32 %1, ptr %5, align 4, !tbaa !10
  store i32 %2, ptr %6, align 4, !tbaa !10
  %7 = load i32, ptr %6, align 4, !tbaa !10
  %8 = load ptr, ptr %4, align 8, !tbaa !37
  %9 = getelementptr inbounds nuw %struct.Vec_Int_t_, ptr %8, i32 0, i32 2
  %10 = load ptr, ptr %9, align 8, !tbaa !42
  %11 = load i32, ptr %5, align 4, !tbaa !10
  %12 = sext i32 %11 to i64
  %13 = getelementptr inbounds i32, ptr %10, i64 %12
  store i32 %7, ptr %13, align 4, !tbaa !10
  ret void
}

; Function Attrs: inlinehint nounwind uwtable
define internal i32 @Vec_BitEntry(ptr noundef %0, i32 noundef %1) #2 {
  %3 = alloca ptr, align 8
  %4 = alloca i32, align 4
  store ptr %0, ptr %3, align 8, !tbaa !70
  store i32 %1, ptr %4, align 4, !tbaa !10
  %5 = load ptr, ptr %3, align 8, !tbaa !70
  %6 = getelementptr inbounds nuw %struct.Vec_Bit_t_, ptr %5, i32 0, i32 2
  %7 = load ptr, ptr %6, align 8, !tbaa !73
  %8 = load i32, ptr %4, align 4, !tbaa !10
  %9 = ashr i32 %8, 5
  %10 = sext i32 %9 to i64
  %11 = getelementptr inbounds i32, ptr %7, i64 %10
  %12 = load i32, ptr %11, align 4, !tbaa !10
  %13 = load i32, ptr %4, align 4, !tbaa !10
  %14 = and i32 %13, 31
  %15 = ashr i32 %12, %14
  %16 = and i32 %15, 1
  ret i32 %16
}

; Function Attrs: inlinehint nounwind uwtable
define internal i32 @Vec_IntEntry(ptr noundef %0, i32 noundef %1) #2 {
  %3 = alloca ptr, align 8
  %4 = alloca i32, align 4
  store ptr %0, ptr %3, align 8, !tbaa !37
  store i32 %1, ptr %4, align 4, !tbaa !10
  %5 = load ptr, ptr %3, align 8, !tbaa !37
  %6 = getelementptr inbounds nuw %struct.Vec_Int_t_, ptr %5, i32 0, i32 2
  %7 = load ptr, ptr %6, align 8, !tbaa !42
  %8 = load i32, ptr %4, align 4, !tbaa !10
  %9 = sext i32 %8 to i64
  %10 = getelementptr inbounds i32, ptr %7, i64 %9
  %11 = load i32, ptr %10, align 4, !tbaa !10
  ret i32 %11
}

; Function Attrs: inlinehint nounwind uwtable
define internal i32 @Vec_IntSize(ptr noundef %0) #2 {
  %2 = alloca ptr, align 8
  store ptr %0, ptr %2, align 8, !tbaa !37
  %3 = load ptr, ptr %2, align 8, !tbaa !37
  %4 = getelementptr inbounds nuw %struct.Vec_Int_t_, ptr %3, i32 0, i32 1
  %5 = load i32, ptr %4, align 4, !tbaa !40
  ret i32 %5
}

; Function Attrs: inlinehint nounwind uwtable
define internal ptr @Gia_ObjLutFanins2(ptr noundef %0, i32 noundef %1) #2 {
  %3 = alloca ptr, align 8
  %4 = alloca i32, align 4
  store ptr %0, ptr %3, align 8, !tbaa !3
  store i32 %1, ptr %4, align 4, !tbaa !10
  %5 = load ptr, ptr %3, align 8, !tbaa !3
  %6 = getelementptr inbounds nuw %struct.Gia_Man_t_, ptr %5, i32 0, i32 38
  %7 = load ptr, ptr %6, align 8, !tbaa !69
  %8 = load i32, ptr %4, align 4, !tbaa !10
  %9 = call ptr @Vec_WecEntry(ptr noundef %7, i32 noundef %8)
  ret ptr %9
}

; Function Attrs: nounwind uwtable
define i32 @Spl_ManLutMffcSize(ptr noundef %0, i32 noundef %1, ptr noundef %2, ptr noundef %3) #0 {
  %5 = alloca ptr, align 8
  %6 = alloca i32, align 4
  %7 = alloca ptr, align 8
  %8 = alloca ptr, align 8
  %9 = alloca i32, align 4
  %10 = alloca i32, align 4
  %11 = alloca i32, align 4
  store ptr %0, ptr %5, align 8, !tbaa !3
  store i32 %1, ptr %6, align 4, !tbaa !10
  store ptr %2, ptr %7, align 8, !tbaa !37
  store ptr %3, ptr %8, align 8, !tbaa !70
  call void @llvm.lifetime.start.p0(i64 4, ptr %9) #9
  call void @llvm.lifetime.start.p0(i64 4, ptr %10) #9
  call void @llvm.lifetime.start.p0(i64 4, ptr %11) #9
  store i32 0, ptr %11, align 4, !tbaa !10
  %12 = load ptr, ptr %5, align 8, !tbaa !3
  call void @Gia_ManIncrementTravId(ptr noundef %12)
  %13 = load ptr, ptr %5, align 8, !tbaa !3
  %14 = load ptr, ptr %7, align 8, !tbaa !37
  %15 = load ptr, ptr %5, align 8, !tbaa !3
  %16 = load i32, ptr %6, align 4, !tbaa !10
  %17 = call ptr @Gia_ObjLutFanins2(ptr noundef %15, i32 noundef %16)
  call void @Gia_ManCollectAnds(ptr noundef %13, ptr noundef %6, i32 noundef 1, ptr noundef %14, ptr noundef %17)
  store i32 0, ptr %10, align 4, !tbaa !10
  br label %18

18:                                               ; preds = %40, %4
  %19 = load i32, ptr %10, align 4, !tbaa !10
  %20 = load ptr, ptr %7, align 8, !tbaa !37
  %21 = call i32 @Vec_IntSize(ptr noundef %20)
  %22 = icmp slt i32 %19, %21
  br i1 %22, label %23, label %27

23:                                               ; preds = %18
  %24 = load ptr, ptr %7, align 8, !tbaa !37
  %25 = load i32, ptr %10, align 4, !tbaa !10
  %26 = call i32 @Vec_IntEntry(ptr noundef %24, i32 noundef %25)
  store i32 %26, ptr %9, align 4, !tbaa !10
  br label %27

27:                                               ; preds = %23, %18
  %28 = phi i1 [ false, %18 ], [ true, %23 ]
  br i1 %28, label %29, label %43

29:                                               ; preds = %27
  %30 = load ptr, ptr %8, align 8, !tbaa !70
  %31 = load i32, ptr %9, align 4, !tbaa !10
  %32 = call i32 @Vec_BitEntry(ptr noundef %30, i32 noundef %31)
  %33 = icmp ne i32 %32, 0
  br i1 %33, label %39, label %34

34:                                               ; preds = %29
  %35 = load ptr, ptr %7, align 8, !tbaa !37
  %36 = load i32, ptr %11, align 4, !tbaa !10
  %37 = add nsw i32 %36, 1
  store i32 %37, ptr %11, align 4, !tbaa !10
  %38 = load i32, ptr %9, align 4, !tbaa !10
  call void @Vec_IntWriteEntry(ptr noundef %35, i32 noundef %36, i32 noundef %38)
  br label %39

39:                                               ; preds = %34, %29
  br label %40

40:                                               ; preds = %39
  %41 = load i32, ptr %10, align 4, !tbaa !10
  %42 = add nsw i32 %41, 1
  store i32 %42, ptr %10, align 4, !tbaa !10
  br label %18, !llvm.loop !108

43:                                               ; preds = %27
  %44 = load ptr, ptr %7, align 8, !tbaa !37
  %45 = load i32, ptr %11, align 4, !tbaa !10
  call void @Vec_IntShrink(ptr noundef %44, i32 noundef %45)
  %46 = load i32, ptr %11, align 4, !tbaa !10
  call void @llvm.lifetime.end.p0(i64 4, ptr %11) #9
  call void @llvm.lifetime.end.p0(i64 4, ptr %10) #9
  call void @llvm.lifetime.end.p0(i64 4, ptr %9) #9
  ret i32 %46
}