; Function Attrs: nounwind uwtable
define i32 @Spl_ManLutMffcSize(ptr noundef %0, i32 noundef %1, ptr noundef %2, ptr noundef readonly captures(none) %3) local_unnamed_addr #0 {
  %5 = alloca i32, align 4
  store i32 %1, ptr %5, align 4, !tbaa !34
  tail call void @Gia_ManIncrementTravId(ptr noundef %0) #18
  %6 = getelementptr i8, ptr %0, i64 272
  %.val20 = load ptr, ptr %6, align 8, !tbaa !68
  %7 = getelementptr i8, ptr %.val20, i64 8
  %.val20.val = load ptr, ptr %7, align 8, !tbaa !30
  %8 = sext i32 %1 to i64
  %9 = getelementptr inbounds %struct.Vec_Int_t_, ptr %.val20.val, i64 %8
  call void @Gia_ManCollectAnds(ptr noundef %0, ptr noundef nonnull %5, i32 noundef 1, ptr noundef %2, ptr noundef %9) #18
  %10 = getelementptr i8, ptr %2, i64 4
  %.val1721 = load i32, ptr %10, align 4, !tbaa !35
  %11 = icmp sgt i32 %.val1721, 0
  br i1 %11, label %.lr.ph, label %.critedge

.lr.ph:                                           ; preds = %4
  %12 = getelementptr i8, ptr %2, i64 8
  %.val = load ptr, ptr %12, align 8, !tbaa !33
  %13 = getelementptr i8, ptr %3, i64 8
  %.val19 = load ptr, ptr %13, align 8, !tbaa !50
  br label %14

14:                                               ; preds = %.lr.ph, %28
  %.val1725 = phi i32 [ %.val1721, %.lr.ph ], [ %.val17, %28 ]
  %indvars.iv = phi i64 [ 0, %.lr.ph ], [ %indvars.iv.next, %28 ]
  %.023 = phi i32 [ 0, %.lr.ph ], [ %.1, %28 ]
  %15 = getelementptr inbounds nuw i32, ptr %.val, i64 %indvars.iv
  %16 = load i32, ptr %15, align 4, !tbaa !34
  %17 = ashr i32 %16, 5
  %18 = sext i32 %17 to i64
  %19 = getelementptr inbounds i32, ptr %.val19, i64 %18
  %20 = load i32, ptr %19, align 4, !tbaa !34
  %21 = and i32 %16, 31
  %22 = shl nuw i32 1, %21
  %23 = and i32 %20, %22
  %.not = icmp eq i32 %23, 0
  br i1 %.not, label %24, label %28

24:                                               ; preds = %14
  %25 = add nsw i32 %.023, 1
  %26 = sext i32 %.023 to i64
  %27 = getelementptr inbounds i32, ptr %.val, i64 %26
  store i32 %16, ptr %27, align 4, !tbaa !34
  %.val17.pre = load i32, ptr %10, align 4, !tbaa !35
  br label %28

28:                                               ; preds = %14, %24
  %.val17 = phi i32 [ %.val1725, %14 ], [ %.val17.pre, %24 ]
  %.1 = phi i32 [ %.023, %14 ], [ %25, %24 ]
  %indvars.iv.next = add nuw nsw i64 %indvars.iv, 1
  %29 = sext i32 %.val17 to i64
  %30 = icmp slt i64 %indvars.iv.next, %29
  br i1 %30, label %14, label %.critedge, !llvm.loop !101

.critedge:                                        ; preds = %28, %4
  %.0.lcssa = phi i32 [ 0, %4 ], [ %.1, %28 ]
  store i32 %.0.lcssa, ptr %10, align 4, !tbaa !35
  ret i32 %.0.lcssa
}